target datalayout = "e-m:e-p270:32:32-p271:32:32-p272:64:64-i64:64-i128:128-f80:128-n8:16:32:64-S128"
target triple = "x86_64-pc-linux-gnu"

%struct.LogicalTapeSet = type { ptr, ptr, i32, i64, i64, i64, i8, ptr, i64, i64, i8 }
%struct.LogicalTape = type { ptr, i8, i8, i8, i64, i64, i64, i64, ptr, i32, i32, i32, i32, ptr, i32, i32 }
%struct.TapeBlockTrailer = type { i64, i64 }

@.str.1 = private unnamed_addr constant [10 x i8] c"logtape.c\00", align 1
@.str.5 = private unnamed_addr constant [27 x i8] c"invalid tape seek position\00", align 1
@__func__.LogicalTapeSeek = private unnamed_addr constant [16 x i8] c"LogicalTapeSeek\00", align 1
@.str.6 = private unnamed_addr constant [47 x i8] c"could not seek to block %lld of temporary file\00", align 1
@__func__.ltsReadBlock = private unnamed_addr constant [13 x i8] c"ltsReadBlock\00", align 1

; Function Attrs: nounwind uwtable
define internal void @ltsReadBlock(ptr noundef %0, i64 noundef %1, ptr noundef %2) #0 {
  %4 = alloca ptr, align 8
  %5 = alloca i64, align 8
  %6 = alloca ptr, align 8
  store ptr %0, ptr %4, align 8
  store i64 %1, ptr %5, align 8
  store ptr %2, ptr %6, align 8
  %7 = load ptr, ptr %4, align 8
  %8 = getelementptr inbounds nuw %struct.LogicalTapeSet, ptr %7, i32 0, i32 0
  %9 = load ptr, ptr %8, align 8
  %10 = load i64, ptr %5, align 8
  %11 = call i32 @BufFileSeekBlock(ptr noundef %9, i64 noundef %10)
  %12 = icmp ne i32 %11, 0
  br i1 %12, label %13, label %25

13:                                               ; preds = %3
  br label %14

14:                                               ; preds = %13
  br i1 true, label %15, label %17

15:                                               ; preds = %14
  %16 = call zeroext i1 @errstart_cold(i32 noundef 21, ptr noundef null) #8
  br i1 %16, label %19, label %23

17:                                               ; preds = %14
  %18 = call zeroext i1 @errstart(i32 noundef 21, ptr noundef null)
  br i1 %18, label %19, label %23

19:                                               ; preds = %17, %15
  %20 = call i32 @errcode_for_file_access()
  %21 = load i64, ptr %5, align 8
  %22 = call i32 (ptr, ...) @errmsg(ptr noundef @.str.6, i64 noundef %21)
  call void @errfinish(ptr noundef @.str.1, i32 noundef 288, ptr noundef @__func__.ltsReadBlock)
  br label %23

23:                                               ; preds = %19, %17, %15
  unreachable

24:                                               ; No predecessors!
  br label %25

25:                                               ; preds = %24, %3
  %26 = load ptr, ptr %4, align 8
  %27 = getelementptr inbounds nuw %struct.LogicalTapeSet, ptr %26, i32 0, i32 0
  %28 = load ptr, ptr %27, align 8
  %29 = load ptr, ptr %6, align 8
  call void @BufFileReadExact(ptr noundef %28, ptr noundef %29, i64 noundef 8192)
  ret void
}

; Function Attrs: nounwind uwtable
define internal void @ltsInitReadBuffer(ptr noundef %0) #0 {
  %2 = alloca ptr, align 8
  store ptr %0, ptr %2, align 8
  %3 = load ptr, ptr %2, align 8
  %4 = getelementptr inbounds nuw %struct.LogicalTape, ptr %3, i32 0, i32 9
  %5 = load i32, ptr %4, align 8
  %6 = sext i32 %5 to i64
  %7 = call ptr @palloc(i64 noundef %6)
  %8 = load ptr, ptr %2, align 8
  %9 = getelementptr inbounds nuw %struct.LogicalTape, ptr %8, i32 0, i32 8
  store ptr %7, ptr %9, align 8
  %10 = load ptr, ptr %2, align 8
  %11 = getelementptr inbounds nuw %struct.LogicalTape, ptr %10, i32 0, i32 4
  %12 = load i64, ptr %11, align 8
  %13 = load ptr, ptr %2, align 8
  %14 = getelementptr inbounds nuw %struct.LogicalTape, ptr %13, i32 0, i32 6
  store i64 %12, ptr %14, align 8
  %15 = load ptr, ptr %2, align 8
  %16 = getelementptr inbounds nuw %struct.LogicalTape, ptr %15, i32 0, i32 11
  store i32 0, ptr %16, align 8
  %17 = load ptr, ptr %2, align 8
  %18 = getelementptr inbounds nuw %struct.LogicalTape, ptr %17, i32 0, i32 12
  store i32 0, ptr %18, align 4
  %19 = load ptr, ptr %2, align 8
  %20 = call zeroext i1 @ltsReadFillBuffer(ptr noundef %19)
  ret void
}

; Function Attrs: nounwind uwtable
define dso_local void @LogicalTapeSeek(ptr noundef %0, i64 noundef %1, i32 noundef %2) #0 {
  %4 = alloca ptr, align 8
  %5 = alloca i64, align 8
  %6 = alloca i32, align 4
  store ptr %0, ptr %4, align 8
  store i64 %1, ptr %5, align 8
  store i32 %2, ptr %6, align 4
  %7 = load ptr, ptr %4, align 8
  %8 = getelementptr inbounds nuw %struct.LogicalTape, ptr %7, i32 0, i32 8
  %9 = load ptr, ptr %8, align 8
  %10 = icmp eq ptr %9, null
  br i1 %10, label %11, label %13

11:                                               ; preds = %3
  %12 = load ptr, ptr %4, align 8
  call void @ltsInitReadBuffer(ptr noundef %12)
  br label %13

13:                                               ; preds = %11, %3
  %14 = load i64, ptr %5, align 8
  %15 = load ptr, ptr %4, align 8
  %16 = getelementptr inbounds nuw %struct.LogicalTape, ptr %15, i32 0, i32 5
  %17 = load i64, ptr %16, align 8
  %18 = icmp ne i64 %14, %17
  br i1 %18, label %19, label %40

19:                                               ; preds = %13
  %20 = load ptr, ptr %4, align 8
  %21 = getelementptr inbounds nuw %struct.LogicalTape, ptr %20, i32 0, i32 0
  %22 = load ptr, ptr %21, align 8
  %23 = load i64, ptr %5, align 8
  %24 = load ptr, ptr %4, align 8
  %25 = getelementptr inbounds nuw %struct.LogicalTape, ptr %24, i32 0, i32 8
  %26 = load ptr, ptr %25, align 8
  call void @ltsReadBlock(ptr noundef %22, i64 noundef %23, ptr noundef %26)
  %27 = load i64, ptr %5, align 8
  %28 = load ptr, ptr %4, align 8
  %29 = getelementptr inbounds nuw %struct.LogicalTape, ptr %28, i32 0, i32 5
  store i64 %27, ptr %29, align 8
  %30 = load ptr, ptr %4, align 8
  %31 = getelementptr inbounds nuw %struct.LogicalTape, ptr %30, i32 0, i32 12
  store i32 8176, ptr %31, align 4
  %32 = load ptr, ptr %4, align 8
  %33 = getelementptr inbounds nuw %struct.LogicalTape, ptr %32, i32 0, i32 8
  %34 = load ptr, ptr %33, align 8
  %35 = getelementptr inbounds nuw i8, ptr %34, i64 8176
  %36 = getelementptr inbounds nuw %struct.TapeBlockTrailer, ptr %35, i32 0, i32 1
  %37 = load i64, ptr %36, align 8
  %38 = load ptr, ptr %4, align 8
  %39 = getelementptr inbounds nuw %struct.LogicalTape, ptr %38, i32 0, i32 6
  store i64 %37, ptr %39, align 8
  br label %40

40:                                               ; preds = %19, %13
  %41 = load i32, ptr %6, align 4
  %42 = load ptr, ptr %4, align 8
  %43 = getelementptr inbounds nuw %struct.LogicalTape, ptr %42, i32 0, i32 12
  %44 = load i32, ptr %43, align 4
  %45 = icmp sgt i32 %41, %44
  br i1 %45, label %46, label %56

46:                                               ; preds = %40
  br label %47

47:                                               ; preds = %46
  br i1 true, label %48, label %50

48:                                               ; preds = %47
  %49 = call zeroext i1 @errstart_cold(i32 noundef 21, ptr noundef null) #8
  br i1 %49, label %52, label %54

50:                                               ; preds = %47
  %51 = call zeroext i1 @errstart(i32 noundef 21, ptr noundef null)
  br i1 %51, label %52, label %54

52:                                               ; preds = %50, %48
  %53 = call i32 (ptr, ...) @errmsg_internal(ptr noundef @.str.5)
  call void @errfinish(ptr noundef @.str.1, i32 noundef 1151, ptr noundef @__func__.LogicalTapeSeek)
  br label %54

54:                                               ; preds = %52, %50, %48
  unreachable

55:                                               ; No predecessors!
  br label %56

56:                                               ; preds = %55, %40
  %57 = load i32, ptr %6, align 4
  %58 = load ptr, ptr %4, align 8
  %59 = getelementptr inbounds nuw %struct.LogicalTape, ptr %58, i32 0, i32 11
  store i32 %57, ptr %59, align 8
  ret void
}