; Function Attrs: nounwind uwtable
define dso_local void @LogicalTapeSeek(ptr noundef captures(none) %0, i64 noundef %1, i32 noundef %2) local_unnamed_addr #0 {
  %4 = getelementptr inbounds nuw i8, ptr %0, i64 48
  %5 = load ptr, ptr %4, align 8
  %6 = icmp eq ptr %5, null
  br i1 %6, label %7, label %18

7:                                                ; preds = %3
  %8 = getelementptr inbounds nuw i8, ptr %0, i64 56
  %9 = load i32, ptr %8, align 8
  %10 = sext i32 %9 to i64
  %11 = tail call ptr @palloc(i64 noundef %10) #10
  store ptr %11, ptr %4, align 8
  %12 = getelementptr inbounds nuw i8, ptr %0, i64 16
  %13 = load i64, ptr %12, align 8
  %14 = getelementptr inbounds nuw i8, ptr %0, i64 32
  store i64 %13, ptr %14, align 8
  %15 = getelementptr inbounds nuw i8, ptr %0, i64 64
  store i32 0, ptr %15, align 8
  %16 = getelementptr inbounds nuw i8, ptr %0, i64 68
  store i32 0, ptr %16, align 4
  %17 = tail call fastcc zeroext i1 @ltsReadFillBuffer(ptr noundef nonnull %0)
  br label %18

18:                                               ; preds = %7, %3
  %19 = getelementptr inbounds nuw i8, ptr %0, i64 24
  %20 = load i64, ptr %19, align 8
  %.not = icmp eq i64 %1, %20
  br i1 %.not, label %._crit_edge, label %21

._crit_edge:                                      ; preds = %18
  %.phi.trans.insert = getelementptr inbounds nuw i8, ptr %0, i64 68
  %.pre = load i32, ptr %.phi.trans.insert, align 4
  br label %36

21:                                               ; preds = %18
  %22 = load ptr, ptr %0, align 8
  %23 = load ptr, ptr %4, align 8
  %24 = load ptr, ptr %22, align 8
  %25 = tail call i32 @BufFileSeekBlock(ptr noundef %24, i64 noundef %1) #10
  %.not.i = icmp eq i32 %25, 0
  br i1 %.not.i, label %ltsReadBlock.exit, label %26

26:                                               ; preds = %21
  %27 = tail call zeroext i1 @errstart_cold(i32 noundef 21, ptr noundef null) #11
  tail call void @llvm.assume(i1 %27)
  %28 = tail call i32 @errcode_for_file_access() #10
  %29 = tail call i32 (ptr, ...) @errmsg(ptr noundef nonnull @.str.6, i64 noundef %1) #10
  tail call void @errfinish(ptr noundef nonnull @.str.1, i32 noundef 288, ptr noundef nonnull @__func__.ltsReadBlock) #10
  unreachable

ltsReadBlock.exit:                                ; preds = %21
  %30 = load ptr, ptr %22, align 8
  tail call void @BufFileReadExact(ptr noundef %30, ptr noundef %23, i64 noundef 8192) #10
  store i64 %1, ptr %19, align 8
  %31 = getelementptr inbounds nuw i8, ptr %0, i64 68
  store i32 8176, ptr %31, align 4
  %32 = load ptr, ptr %4, align 8
  %33 = getelementptr inbounds nuw i8, ptr %32, i64 8184
  %34 = load i64, ptr %33, align 8
  %35 = getelementptr inbounds nuw i8, ptr %0, i64 32
  store i64 %34, ptr %35, align 8
  br label %36

36:                                               ; preds = %._crit_edge, %ltsReadBlock.exit
  %37 = phi i32 [ %.pre, %._crit_edge ], [ 8176, %ltsReadBlock.exit ]
  %38 = icmp sgt i32 %2, %37
  br i1 %38, label %39, label %42

39:                                               ; preds = %36
  %40 = tail call zeroext i1 @errstart_cold(i32 noundef 21, ptr noundef null) #11
  tail call void @llvm.assume(i1 %40)
  %41 = tail call i32 (ptr, ...) @errmsg_internal(ptr noundef nonnull @.str.5) #10
  tail call void @errfinish(ptr noundef nonnull @.str.1, i32 noundef 1151, ptr noundef nonnull @__func__.LogicalTapeSeek) #10
  unreachable

42:                                               ; preds = %36
  %43 = getelementptr inbounds nuw i8, ptr %0, i64 64
  store i32 %2, ptr %43, align 8
  ret void
}